; Function Attrs: nounwind uwtable
define hidden void @_mi_segment_page_abandon(ptr noundef %0, ptr noundef captures(none) %1) local_unnamed_addr #4 {
  %3 = ptrtoint ptr %0 to i64
  %4 = add i64 %3, -1
  %5 = and i64 %4, -33554432
  %6 = inttoptr i64 %5 to ptr
  %7 = icmp slt i64 %4, 33554432
  %8 = select i1 %7, ptr null, ptr %6
  %9 = getelementptr inbounds nuw i8, ptr %8, i64 200
  %10 = load i64, ptr %9, align 8, !tbaa !38
  %11 = add i64 %10, 1
  store i64 %11, ptr %9, align 8, !tbaa !38
  %12 = getelementptr inbounds nuw i8, ptr %1, i64 912
  %13 = load ptr, ptr %12, align 8, !tbaa !40
  %14 = getelementptr inbounds nuw i8, ptr %13, i64 256
  tail call void @_mi_stat_increase(ptr noundef nonnull %14, i64 noundef 1) #11
  %15 = getelementptr inbounds nuw i8, ptr %6, i64 216
  %16 = load i64, ptr %15, align 8, !tbaa !37
  %17 = load i64, ptr %9, align 8, !tbaa !38
  %18 = icmp eq i64 %16, %17
  br i1 %18, label %19, label %20

19:                                               ; preds = %2
  tail call fastcc void @mi_segment_abandon(ptr noundef nonnull %6, ptr noundef nonnull %1) #10
  br label %20

20:                                               ; preds = %19, %2
  ret void
}